target datalayout = "e-m:e-p270:32:32-p271:32:32-p272:64:64-i64:64-i128:128-f80:128-n8:16:32:64-S128"
target triple = "x86_64-pc-linux-gnu"

%struct.lua_State = type { ptr, i8, i8, i8, i8, i16, %union.StkIdRel, ptr, ptr, %union.StkIdRel, %union.StkIdRel, ptr, %union.StkIdRel, ptr, ptr, ptr, %struct.CallInfo, ptr, i64, i32, i32, i32, i32, i32, %struct.anon.2 }
%union.StkIdRel = type { ptr }
%struct.CallInfo = type { %union.StkIdRel, %union.StkIdRel, ptr, ptr, %union.anon, %union.anon.1, i32 }
%union.anon = type { %struct.anon.0 }
%struct.anon.0 = type { ptr, i64, i64 }
%union.anon.1 = type { i32 }
%struct.anon.2 = type { i32, i32 }
%struct.global_State = type { ptr, ptr, i64, i64, i64, i64, %struct.stringtable, %struct.TValue, %struct.TValue, i32, [6 x i8], i8, i8, i8, i8, i8, i8, ptr, ptr, ptr, ptr, ptr, ptr, ptr, ptr, ptr, ptr, ptr, ptr, ptr, ptr, ptr, ptr, ptr, ptr, ptr, ptr, ptr, [25 x ptr], [9 x ptr], [53 x [2 x ptr]], ptr, ptr }
%struct.stringtable = type { ptr, i32, i32 }
%struct.TValue = type { %union.Value, i8 }
%union.Value = type { ptr }
%struct.GCObject = type { ptr, i8, i8 }
%struct.Udata = type { ptr, i8, i8, i16, i64, ptr, ptr, [1 x %union.UValue] }
%union.UValue = type { %struct.TValue }
%struct.Table = type { ptr, i8, i8, i8, i8, i32, ptr, ptr, ptr, ptr }
%struct.LClosure = type { ptr, i8, i8, i8, ptr, ptr, [1 x ptr] }
%struct.CClosure = type { ptr, i8, i8, i8, ptr, ptr, [1 x %struct.TValue] }
%struct.Proto = type { ptr, i8, i8, i8, i8, i8, i32, i32, i32, i32, i32, i32, i32, i32, i32, ptr, ptr, ptr, ptr, ptr, ptr, ptr, ptr, ptr }

; Function Attrs: nounwind uwtable
define internal void @linkgclist_(ptr noundef %0, ptr noundef %1, ptr noundef %2) #0 {
  %4 = alloca ptr, align 8
  %5 = alloca ptr, align 8
  %6 = alloca ptr, align 8
  store ptr %0, ptr %4, align 8, !tbaa !9
  store ptr %1, ptr %5, align 8, !tbaa !52
  store ptr %2, ptr %6, align 8, !tbaa !52
  %7 = load ptr, ptr %6, align 8, !tbaa !52
  %8 = load ptr, ptr %7, align 8, !tbaa !9
  %9 = load ptr, ptr %5, align 8, !tbaa !52
  store ptr %8, ptr %9, align 8, !tbaa !9
  %10 = load ptr, ptr %4, align 8, !tbaa !9
  %11 = load ptr, ptr %6, align 8, !tbaa !52
  store ptr %10, ptr %11, align 8, !tbaa !9
  %12 = load ptr, ptr %4, align 8, !tbaa !9
  %13 = getelementptr inbounds nuw %struct.GCObject, ptr %12, i32 0, i32 2
  %14 = load i8, ptr %13, align 1, !tbaa !30
  %15 = zext i8 %14 to i32
  %16 = and i32 %15, 199
  %17 = trunc i32 %16 to i8
  store i8 %17, ptr %13, align 1, !tbaa !30
  ret void
}

; Function Attrs: nounwind uwtable
define internal ptr @getgclist(ptr noundef %0) #0 {
  %2 = alloca ptr, align 8
  %3 = alloca ptr, align 8
  %4 = alloca ptr, align 8
  store ptr %0, ptr %3, align 8, !tbaa !9
  %5 = load ptr, ptr %3, align 8, !tbaa !9
  %6 = getelementptr inbounds nuw %struct.GCObject, ptr %5, i32 0, i32 1
  %7 = load i8, ptr %6, align 8, !tbaa !35
  %8 = zext i8 %7 to i32
  switch i32 %8, label %28 [
    i32 5, label %9
    i32 6, label %12
    i32 38, label %15
    i32 8, label %18
    i32 10, label %21
    i32 7, label %24
  ]

9:                                                ; preds = %1
  %10 = load ptr, ptr %3, align 8, !tbaa !9
  %11 = getelementptr inbounds nuw %struct.Table, ptr %10, i32 0, i32 9
  store ptr %11, ptr %2, align 8
  br label %29

12:                                               ; preds = %1
  %13 = load ptr, ptr %3, align 8, !tbaa !9
  %14 = getelementptr inbounds nuw %struct.LClosure, ptr %13, i32 0, i32 4
  store ptr %14, ptr %2, align 8
  br label %29

15:                                               ; preds = %1
  %16 = load ptr, ptr %3, align 8, !tbaa !9
  %17 = getelementptr inbounds nuw %struct.CClosure, ptr %16, i32 0, i32 4
  store ptr %17, ptr %2, align 8
  br label %29

18:                                               ; preds = %1
  %19 = load ptr, ptr %3, align 8, !tbaa !9
  %20 = getelementptr inbounds nuw %struct.lua_State, ptr %19, i32 0, i32 13
  store ptr %20, ptr %2, align 8
  br label %29

21:                                               ; preds = %1
  %22 = load ptr, ptr %3, align 8, !tbaa !9
  %23 = getelementptr inbounds nuw %struct.Proto, ptr %22, i32 0, i32 23
  store ptr %23, ptr %2, align 8
  br label %29

24:                                               ; preds = %1
  call void @llvm.lifetime.start.p0(i64 8, ptr %4) #6
  %25 = load ptr, ptr %3, align 8, !tbaa !9
  store ptr %25, ptr %4, align 8, !tbaa !41
  %26 = load ptr, ptr %4, align 8, !tbaa !41
  %27 = getelementptr inbounds nuw %struct.Udata, ptr %26, i32 0, i32 6
  store ptr %27, ptr %2, align 8
  call void @llvm.lifetime.end.p0(i64 8, ptr %4) #6
  br label %29

28:                                               ; preds = %1
  store ptr null, ptr %2, align 8
  br label %29

29:                                               ; preds = %28, %24, %21, %18, %15, %12, %9
  %30 = load ptr, ptr %2, align 8
  ret ptr %30
}

; Function Attrs: nounwind uwtable
define hidden void @luaC_barrierback_(ptr noundef %0, ptr noundef %1) #0 {
  %3 = alloca ptr, align 8
  %4 = alloca ptr, align 8
  %5 = alloca ptr, align 8
  store ptr %0, ptr %3, align 8, !tbaa !4
  store ptr %1, ptr %4, align 8, !tbaa !9
  call void @llvm.lifetime.start.p0(i64 8, ptr %5) #6
  %6 = load ptr, ptr %3, align 8, !tbaa !4
  %7 = getelementptr inbounds nuw %struct.lua_State, ptr %6, i32 0, i32 7
  %8 = load ptr, ptr %7, align 8, !tbaa !11
  store ptr %8, ptr %5, align 8, !tbaa !22
  %9 = load ptr, ptr %4, align 8, !tbaa !9
  %10 = getelementptr inbounds nuw %struct.GCObject, ptr %9, i32 0, i32 2
  %11 = load i8, ptr %10, align 1, !tbaa !30
  %12 = zext i8 %11 to i32
  %13 = and i32 %12, 7
  %14 = icmp eq i32 %13, 6
  br i1 %14, label %15, label %22

15:                                               ; preds = %2
  %16 = load ptr, ptr %4, align 8, !tbaa !9
  %17 = getelementptr inbounds nuw %struct.GCObject, ptr %16, i32 0, i32 2
  %18 = load i8, ptr %17, align 1, !tbaa !30
  %19 = zext i8 %18 to i32
  %20 = and i32 %19, 199
  %21 = trunc i32 %20 to i8
  store i8 %21, ptr %17, align 1, !tbaa !30
  br label %28

22:                                               ; preds = %2
  %23 = load ptr, ptr %4, align 8, !tbaa !9
  %24 = load ptr, ptr %4, align 8, !tbaa !9
  %25 = call ptr @getgclist(ptr noundef %24)
  %26 = load ptr, ptr %5, align 8, !tbaa !22
  %27 = getelementptr inbounds nuw %struct.global_State, ptr %26, i32 0, i32 21
  call void @linkgclist_(ptr noundef %23, ptr noundef %25, ptr noundef %27)
  br label %28

28:                                               ; preds = %22, %15
  %29 = load ptr, ptr %4, align 8, !tbaa !9
  %30 = getelementptr inbounds nuw %struct.GCObject, ptr %29, i32 0, i32 2
  %31 = load i8, ptr %30, align 1, !tbaa !30
  %32 = zext i8 %31 to i32
  %33 = and i32 %32, 7
  %34 = icmp sgt i32 %33, 1
  br i1 %34, label %35, label %45

35:                                               ; preds = %28
  %36 = load ptr, ptr %4, align 8, !tbaa !9
  %37 = getelementptr inbounds nuw %struct.GCObject, ptr %36, i32 0, i32 2
  %38 = load i8, ptr %37, align 1, !tbaa !30
  %39 = zext i8 %38 to i32
  %40 = and i32 %39, -8
  %41 = or i32 %40, 5
  %42 = trunc i32 %41 to i8
  %43 = load ptr, ptr %4, align 8, !tbaa !9
  %44 = getelementptr inbounds nuw %struct.GCObject, ptr %43, i32 0, i32 2
  store i8 %42, ptr %44, align 1, !tbaa !30
  br label %45

45:                                               ; preds = %35, %28
  call void @llvm.lifetime.end.p0(i64 8, ptr %5) #6
  ret void
}