; Function Attrs: mustprogress nofree norecurse nosync nounwind willreturn memory(readwrite, inaccessiblemem: none) uwtable
define hidden void @luaC_barrierback_(ptr noundef readonly captures(none) %0, ptr noundef %1) local_unnamed_addr #2 {
  %3 = getelementptr inbounds nuw i8, ptr %1, i64 9
  %4 = load i8, ptr %3, align 1, !tbaa !27
  %5 = and i8 %4, 7
  %6 = icmp eq i8 %5, 6
  br i1 %6, label %19, label %7

7:                                                ; preds = %2
  %8 = getelementptr inbounds nuw i8, ptr %0, i64 24
  %9 = load ptr, ptr %8, align 8, !tbaa !4
  %10 = getelementptr inbounds nuw i8, ptr %1, i64 8
  %11 = load i8, ptr %10, align 8, !tbaa !32
  switch i8 %11, label %unreachable [
    i8 5, label %getgclist.exit
    i8 6, label %12
    i8 38, label %12
    i8 8, label %13
    i8 10, label %14
    i8 7, label %15
  ]

12:                                               ; preds = %7, %7
  br label %getgclist.exit

13:                                               ; preds = %7
  br label %getgclist.exit

14:                                               ; preds = %7
  br label %getgclist.exit

15:                                               ; preds = %7
  br label %getgclist.exit

unreachable:                                      ; preds = %7
  unreachable

getgclist.exit:                                   ; preds = %7, %12, %13, %14, %15
  %.sink = phi i64 [ 16, %12 ], [ 72, %13 ], [ 120, %14 ], [ 32, %15 ], [ 40, %7 ]
  %16 = getelementptr inbounds nuw i8, ptr %1, i64 %.sink
  %17 = getelementptr inbounds nuw i8, ptr %9, i64 144
  %18 = load ptr, ptr %17, align 8, !tbaa !46
  store ptr %18, ptr %16, align 8, !tbaa !46
  store ptr %1, ptr %17, align 8, !tbaa !46
  br label %19

19:                                               ; preds = %2, %getgclist.exit
  %.sink10 = phi i8 [ -57, %getgclist.exit ], [ -58, %2 ]
  %20 = and i8 %4, %.sink10
  %21 = and i8 %4, 6
  %.not = icmp eq i8 %21, 0
  %22 = and i8 %4, -64
  %23 = or disjoint i8 %22, 5
  %storemerge9 = select i1 %.not, i8 %20, i8 %23
  store i8 %storemerge9, ptr %3, align 1, !tbaa !27
  ret void
}